ARM GAS  C:\Users\ktyang\AppData\Local\Temp\cckCvfvg.s 			page 1


   1              		.syntax unified
   2              		.cpu cortex-m3
   3              		.fpu softvfp
   4              		.eabi_attribute 20, 1
   5              		.eabi_attribute 21, 1
   6              		.eabi_attribute 23, 3
   7              		.eabi_attribute 24, 1
   8              		.eabi_attribute 25, 1
   9              		.eabi_attribute 26, 1
  10              		.eabi_attribute 30, 1
  11              		.eabi_attribute 34, 1
  12              		.eabi_attribute 18, 4
  13              		.thumb
  14              		.syntax unified
  15              		.file	"main.c"
  16              		.text
  17              	.Ltext0:
  18              		.cfi_sections	.debug_frame
  19              		.section	.text.glove_data,"ax",%progbits
  20              		.align	2
  21              		.global	glove_data
  22              		.thumb
  23              		.thumb_func
  24              		.type	glove_data, %function
  25              	glove_data:
  26              	.LFB64:
  27              		.file 1 "main.c"
   1:main.c        **** /* ========================================
   2:main.c        ****  *
   3:main.c        ****  * Copyright YOUR COMPANY, THE YEAR
   4:main.c        ****  * All Rights Reserved
   5:main.c        ****  * UNPUBLISHED, LICENSED SOFTWARE.
   6:main.c        ****  *
   7:main.c        ****  * CONFIDENTIAL AND PROPRIETARY INFORMATION
   8:main.c        ****  * WHICH IS THE PROPERTY OF your company.
   9:main.c        ****  *
  10:main.c        ****  * ========================================
  11:main.c        **** */
  12:main.c        **** #include "project.h"
  13:main.c        **** #include <string.h>
  14:main.c        **** #include <stdio.h>
  15:main.c        **** 
  16:main.c        **** char buf[50];
  17:main.c        **** int i = 0;
  18:main.c        **** 
  19:main.c        **** CY_ISR(glove_data) {
  28              		.loc 1 19 0
  29              		.cfi_startproc
  30              		@ args = 0, pretend = 0, frame = 0
  31              		@ frame_needed = 0, uses_anonymous_args = 0
  32 0000 38B5     		push	{r3, r4, r5, lr}
  33              		.cfi_def_cfa_offset 16
  34              		.cfi_offset 3, -16
  35              		.cfi_offset 4, -12
  36              		.cfi_offset 5, -8
  37              		.cfi_offset 14, -4
  20:main.c        ****     
ARM GAS  C:\Users\ktyang\AppData\Local\Temp\cckCvfvg.s 			page 2


  21:main.c        ****     while (UART_1_GetRxBufferSize()) {
  38              		.loc 1 21 0
  39 0002 08E0     		b	.L2
  40              	.L3:
  22:main.c        ****         buf[i] = UART_1_ReadRxData();
  41              		.loc 1 22 0
  42 0004 064C     		ldr	r4, .L5
  43 0006 2568     		ldr	r5, [r4]
  44 0008 FFF7FEFF 		bl	UART_1_ReadRxData
  45              	.LVL0:
  46 000c 054B     		ldr	r3, .L5+4
  47 000e 5855     		strb	r0, [r3, r5]
  23:main.c        ****         i++;
  48              		.loc 1 23 0
  49 0010 2368     		ldr	r3, [r4]
  50 0012 0133     		adds	r3, r3, #1
  51 0014 2360     		str	r3, [r4]
  52              	.L2:
  21:main.c        ****         buf[i] = UART_1_ReadRxData();
  53              		.loc 1 21 0
  54 0016 FFF7FEFF 		bl	UART_1_GetRxBufferSize
  55              	.LVL1:
  56 001a 0028     		cmp	r0, #0
  57 001c F2D1     		bne	.L3
  24:main.c        ****     }
  25:main.c        ****     
  26:main.c        **** }
  58              		.loc 1 26 0
  59 001e 38BD     		pop	{r3, r4, r5, pc}
  60              	.L6:
  61              		.align	2
  62              	.L5:
  63 0020 00000000 		.word	.LANCHOR0
  64 0024 00000000 		.word	buf
  65              		.cfi_endproc
  66              	.LFE64:
  67              		.size	glove_data, .-glove_data
  68              		.global	__aeabi_i2d
  69              		.global	__aeabi_ddiv
  70              		.global	__aeabi_dmul
  71              		.global	__aeabi_d2f
  72              		.global	__aeabi_f2uiz
  73              		.global	__aeabi_fmul
  74              		.global	__aeabi_fadd
  75              		.section	.text.main,"ax",%progbits
  76              		.align	2
  77              		.global	main
  78              		.thumb
  79              		.thumb_func
  80              		.type	main, %function
  81              	main:
  82              	.LFB65:
  27:main.c        **** int main(void)
  28:main.c        **** {
  83              		.loc 1 28 0
  84              		.cfi_startproc
  85              		@ args = 0, pretend = 0, frame = 0
ARM GAS  C:\Users\ktyang\AppData\Local\Temp\cckCvfvg.s 			page 3


  86              		@ frame_needed = 0, uses_anonymous_args = 0
  87 0000 10B5     		push	{r4, lr}
  88              		.cfi_def_cfa_offset 8
  89              		.cfi_offset 4, -8
  90              		.cfi_offset 14, -4
  29:main.c        ****     CyGlobalIntEnable; /* Enable global interrupts. */
  91              		.loc 1 29 0
  92              		.syntax unified
  93              	@ 29 "main.c" 1
  94 0002 62B6     		CPSIE   i
  95              	@ 0 "" 2
  30:main.c        ****     
  31:main.c        ****     /* Place your initialization/startup code here (e.g. MyInst_Start()) */
  32:main.c        ****     // Glove control init
  33:main.c        ****     UART_1_Start();
  96              		.loc 1 33 0
  97              		.thumb
  98              		.syntax unified
  99 0004 FFF7FEFF 		bl	UART_1_Start
 100              	.LVL2:
  34:main.c        ****     PWM_Start();
 101              		.loc 1 34 0
 102 0008 FFF7FEFF 		bl	PWM_Start
 103              	.LVL3:
  35:main.c        ****     PWM_Timer_Start();
 104              		.loc 1 35 0
 105 000c FFF7FEFF 		bl	PWM_Timer_Start
 106              	.LVL4:
  36:main.c        ****     Servo_PWM_Start();
 107              		.loc 1 36 0
 108 0010 FFF7FEFF 		bl	Servo_PWM_Start
 109              	.LVL5:
  37:main.c        ****     
  38:main.c        ****     // UART_1_PutString("Hello world!\n\r");
  39:main.c        ****     Receive_Data_Start();
 110              		.loc 1 39 0
 111 0014 FFF7FEFF 		bl	Receive_Data_Start
 112              	.LVL6:
  40:main.c        ****     Receive_Data_SetVector(glove_data);
 113              		.loc 1 40 0
 114 0018 1D48     		ldr	r0, .L11+8
 115 001a FFF7FEFF 		bl	Receive_Data_SetVector
 116              	.LVL7:
 117              	.L8:
  41:main.c        ****     uint8 speedVal = 0;
  42:main.c        ****     uint8 directionVal = 127;
  43:main.c        ****     uint8 newSpeed;
  44:main.c        ****     float normalized;
  45:main.c        ****     uint16 position;
  46:main.c        ****     
  47:main.c        ****     for(;;)
  48:main.c        ****     {
  49:main.c        ****   
  50:main.c        ****         if (i > 1) {
 118              		.loc 1 50 0
 119 001e 1D4B     		ldr	r3, .L11+12
 120 0020 1B68     		ldr	r3, [r3]
ARM GAS  C:\Users\ktyang\AppData\Local\Temp\cckCvfvg.s 			page 4


 121 0022 012B     		cmp	r3, #1
 122 0024 FBDD     		ble	.L8
  51:main.c        ****             
  52:main.c        ****             
  53:main.c        ****             speedVal = (uint8) buf[0];
 123              		.loc 1 53 0
 124 0026 1C4B     		ldr	r3, .L11+16
 125              	.LVL8:
  54:main.c        ****             directionVal = (uint8) buf[1];
 126              		.loc 1 54 0
 127 0028 5C78     		ldrb	r4, [r3, #1]	@ zero_extendqisi2
 128              	.LVL9:
  55:main.c        ****             
  56:main.c        ****             // change speed and direction
  57:main.c        ****             normalized = (speedVal / 255.0) * 100;
 129              		.loc 1 57 0
 130 002a 1878     		ldrb	r0, [r3]	@ zero_extendqisi2
 131 002c FFF7FEFF 		bl	__aeabi_i2d
 132              	.LVL10:
 133 0030 15A3     		adr	r3, .L11
 134 0032 D3E90023 		ldrd	r2, [r3]
 135 0036 FFF7FEFF 		bl	__aeabi_ddiv
 136              	.LVL11:
 137 003a 0022     		movs	r2, #0
 138 003c 174B     		ldr	r3, .L11+20
 139 003e FFF7FEFF 		bl	__aeabi_dmul
 140              	.LVL12:
 141 0042 FFF7FEFF 		bl	__aeabi_d2f
 142              	.LVL13:
  58:main.c        ****             newSpeed = (uint8) normalized;
 143              		.loc 1 58 0
 144 0046 FFF7FEFF 		bl	__aeabi_f2uiz
 145              	.LVL14:
  59:main.c        ****             PWM_WriteCompare(newSpeed);
 146              		.loc 1 59 0
 147 004a C0B2     		uxtb	r0, r0
 148 004c FFF7FEFF 		bl	PWM_WriteCompare
 149              	.LVL15:
  60:main.c        **** 
  61:main.c        ****             normalized = (directionVal - 127) / 128.0;
 150              		.loc 1 61 0
 151 0050 A4F17F00 		sub	r0, r4, #127
 152 0054 FFF7FEFF 		bl	__aeabi_i2d
 153              	.LVL16:
 154 0058 0022     		movs	r2, #0
 155 005a 4FF07E53 		mov	r3, #1065353216
 156 005e FFF7FEFF 		bl	__aeabi_dmul
 157              	.LVL17:
 158 0062 FFF7FEFF 		bl	__aeabi_d2f
 159              	.LVL18:
  62:main.c        ****             position = normalized * 6000 + 9600;
 160              		.loc 1 62 0
 161 0066 0E49     		ldr	r1, .L11+24
 162 0068 FFF7FEFF 		bl	__aeabi_fmul
 163              	.LVL19:
 164 006c 0D49     		ldr	r1, .L11+28
 165 006e FFF7FEFF 		bl	__aeabi_fadd
ARM GAS  C:\Users\ktyang\AppData\Local\Temp\cckCvfvg.s 			page 5


 166              	.LVL20:
 167 0072 FFF7FEFF 		bl	__aeabi_f2uiz
 168              	.LVL21:
  63:main.c        ****             Servo_PWM_WriteCompare(position); 
 169              		.loc 1 63 0
 170 0076 80B2     		uxth	r0, r0
 171 0078 FFF7FEFF 		bl	Servo_PWM_WriteCompare
 172              	.LVL22:
  64:main.c        ****             
  65:main.c        ****             // reset
  66:main.c        ****             i = 0;
 173              		.loc 1 66 0
 174 007c 0022     		movs	r2, #0
 175 007e 054B     		ldr	r3, .L11+12
 176 0080 1A60     		str	r2, [r3]
 177 0082 CCE7     		b	.L8
 178              	.L12:
 179 0084 AFF30080 		.align	3
 180              	.L11:
 181 0088 00000000 		.word	0
 182 008c 00E06F40 		.word	1081073664
 183 0090 00000000 		.word	glove_data
 184 0094 00000000 		.word	.LANCHOR0
 185 0098 00000000 		.word	buf
 186 009c 00005940 		.word	1079574528
 187 00a0 0080BB45 		.word	1169915904
 188 00a4 00001646 		.word	1175846912
 189              		.cfi_endproc
 190              	.LFE65:
 191              		.size	main, .-main
 192              		.global	i
 193              		.comm	buf,50,4
 194              		.bss
 195              		.align	2
 196              		.set	.LANCHOR0,. + 0
 197              		.type	i, %object
 198              		.size	i, 4
 199              	i:
 200 0000 00000000 		.space	4
 201              		.text
 202              	.Letext0:
 203              		.file 2 "c:\\program files (x86)\\cypress\\psoc creator\\4.2\\psoc creator\\import\\gnu\\arm\\5.4.
 204              		.file 3 "c:\\program files (x86)\\cypress\\psoc creator\\4.2\\psoc creator\\import\\gnu\\arm\\5.4.
 205              		.file 4 "Generated_Source\\PSoC5/cytypes.h"
 206              		.file 5 "Generated_Source\\PSoC5/UART_1.h"
 207              		.file 6 "Generated_Source\\PSoC5/PWM.h"
 208              		.file 7 "Generated_Source\\PSoC5/PWM_Timer.h"
 209              		.file 8 "Generated_Source\\PSoC5/Servo_PWM.h"
 210              		.file 9 "Generated_Source\\PSoC5/Receive_Data.h"
 211              		.file 10 "Generated_Source\\PSoC5/core_cm3.h"